target datalayout = "e-m:e-p270:32:32-p271:32:32-p272:64:64-i64:64-i128:128-f80:128-n8:16:32:64-S128"
target triple = "x86_64-pc-linux-gnu"

; Function Attrs: nounwind uwtable
define internal i32 @compare(ptr noundef %0, ptr noundef %1, i32 noundef %2, i32 noundef %3) #0 {
  %5 = alloca i32, align 4
  %6 = alloca ptr, align 8
  %7 = alloca ptr, align 8
  %8 = alloca i32, align 4
  %9 = alloca i32, align 4
  %10 = alloca ptr, align 8
  %11 = alloca ptr, align 8
  %12 = alloca ptr, align 8
  %13 = alloca ptr, align 8
  %14 = alloca i32, align 4
  %15 = alloca i32, align 4
  %16 = alloca i8, align 1
  %17 = alloca i8, align 1
  store ptr %0, ptr %6, align 8
  store ptr %1, ptr %7, align 8
  store i32 %2, ptr %8, align 4
  store i32 %3, ptr %9, align 4
  %18 = load ptr, ptr %6, align 8
  store ptr %18, ptr %10, align 8
  %19 = load ptr, ptr %7, align 8
  store ptr %19, ptr %11, align 8
  %20 = load ptr, ptr %10, align 8
  %21 = load i32, ptr %8, align 4
  %22 = sext i32 %21 to i64
  %23 = getelementptr inbounds i8, ptr %20, i64 %22
  store ptr %23, ptr %12, align 8
  %24 = load ptr, ptr %11, align 8
  %25 = load i32, ptr %9, align 4
  %26 = sext i32 %25 to i64
  %27 = getelementptr inbounds i8, ptr %24, i64 %26
  store ptr %27, ptr %13, align 8
  br label %28

28:                                               ; preds = %287, %274, %4
  %29 = load ptr, ptr %10, align 8
  %30 = load ptr, ptr %12, align 8
  %31 = icmp ult ptr %29, %30
  br i1 %31, label %32, label %36

32:                                               ; preds = %28
  %33 = load ptr, ptr %11, align 8
  %34 = load ptr, ptr %13, align 8
  %35 = icmp ult ptr %33, %34
  br label %36

36:                                               ; preds = %32, %28
  %37 = phi i1 [ false, %28 ], [ %35, %32 ]
  br i1 %37, label %38, label %288

38:                                               ; preds = %36
  br label %39

39:                                               ; preds = %38
  %40 = load ptr, ptr %10, align 8
  %41 = getelementptr inbounds i8, ptr %40, i32 1
  store ptr %41, ptr %10, align 8
  %42 = load i8, ptr %40, align 1
  store i8 %42, ptr %16, align 1
  %43 = load i8, ptr %16, align 1
  %44 = zext i8 %43 to i32
  %45 = icmp slt i32 %44, 128
  br i1 %45, label %46, label %49

46:                                               ; preds = %39
  %47 = load i8, ptr %16, align 1
  %48 = zext i8 %47 to i32
  store i32 %48, ptr %14, align 4
  br label %153

49:                                               ; preds = %39
  %50 = load i8, ptr %16, align 1
  %51 = zext i8 %50 to i32
  %52 = icmp sge i32 %51, 194
  br i1 %52, label %53, label %72

53:                                               ; preds = %49
  %54 = load i8, ptr %16, align 1
  %55 = zext i8 %54 to i32
  %56 = icmp slt i32 %55, 224
  br i1 %56, label %57, label %72

57:                                               ; preds = %53
  %58 = load ptr, ptr %10, align 8
  %59 = load ptr, ptr %12, align 8
  %60 = icmp ult ptr %58, %59
  br i1 %60, label %61, label %72

61:                                               ; preds = %57
  %62 = load i8, ptr %16, align 1
  %63 = zext i8 %62 to i32
  %64 = and i32 %63, 31
  %65 = shl i32 %64, 6
  %66 = load ptr, ptr %10, align 8
  %67 = getelementptr inbounds i8, ptr %66, i32 1
  store ptr %67, ptr %10, align 8
  %68 = load i8, ptr %66, align 1
  %69 = zext i8 %68 to i32
  %70 = and i32 %69, 63
  %71 = or i32 %65, %70
  store i32 %71, ptr %14, align 4
  br label %152

72:                                               ; preds = %57, %53, %49
  %73 = load i8, ptr %16, align 1
  %74 = zext i8 %73 to i32
  %75 = icmp sge i32 %74, 224
  br i1 %75, label %76, label %105

76:                                               ; preds = %72
  %77 = load i8, ptr %16, align 1
  %78 = zext i8 %77 to i32
  %79 = icmp slt i32 %78, 240
  br i1 %79, label %80, label %105

80:                                               ; preds = %76
  %81 = load ptr, ptr %10, align 8
  %82 = getelementptr inbounds i8, ptr %81, i64 1
  %83 = load ptr, ptr %12, align 8
  %84 = icmp ult ptr %82, %83
  br i1 %84, label %85, label %105

85:                                               ; preds = %80
  %86 = load i8, ptr %16, align 1
  %87 = zext i8 %86 to i32
  %88 = and i32 %87, 15
  %89 = shl i32 %88, 12
  %90 = load ptr, ptr %10, align 8
  %91 = getelementptr inbounds i8, ptr %90, i64 0
  %92 = load i8, ptr %91, align 1
  %93 = zext i8 %92 to i32
  %94 = and i32 %93, 63
  %95 = shl i32 %94, 6
  %96 = or i32 %89, %95
  %97 = load ptr, ptr %10, align 8
  %98 = getelementptr inbounds i8, ptr %97, i64 1
  %99 = load i8, ptr %98, align 1
  %100 = zext i8 %99 to i32
  %101 = and i32 %100, 63
  %102 = or i32 %96, %101
  store i32 %102, ptr %14, align 4
  %103 = load ptr, ptr %10, align 8
  %104 = getelementptr inbounds i8, ptr %103, i64 2
  store ptr %104, ptr %10, align 8
  br label %151

105:                                              ; preds = %80, %76, %72
  %106 = load i8, ptr %16, align 1
  %107 = zext i8 %106 to i32
  %108 = icmp sge i32 %107, 240
  br i1 %108, label %109, label %149

109:                                              ; preds = %105
  %110 = load i8, ptr %16, align 1
  %111 = zext i8 %110 to i32
  %112 = icmp sle i32 %111, 245
  br i1 %112, label %113, label %149

113:                                              ; preds = %109
  %114 = load ptr, ptr %10, align 8
  %115 = getelementptr inbounds i8, ptr %114, i64 2
  %116 = load ptr, ptr %12, align 8
  %117 = icmp ult ptr %115, %116
  br i1 %117, label %118, label %149

118:                                              ; preds = %113
  %119 = load i8, ptr %16, align 1
  %120 = zext i8 %119 to i32
  %121 = and i32 %120, 7
  %122 = shl i32 %121, 18
  %123 = load ptr, ptr %10, align 8
  %124 = getelementptr inbounds i8, ptr %123, i64 0
  %125 = load i8, ptr %124, align 1
  %126 = zext i8 %125 to i32
  %127 = and i32 %126, 63
  %128 = shl i32 %127, 12
  %129 = or i32 %122, %128
  %130 = load ptr, ptr %10, align 8
  %131 = getelementptr inbounds i8, ptr %130, i64 1
  %132 = load i8, ptr %131, align 1
  %133 = zext i8 %132 to i32
  %134 = and i32 %133, 63
  %135 = shl i32 %134, 6
  %136 = or i32 %129, %135
  %137 = load ptr, ptr %10, align 8
  %138 = getelementptr inbounds i8, ptr %137, i64 2
  %139 = load i8, ptr %138, align 1
  %140 = zext i8 %139 to i32
  %141 = and i32 %140, 63
  %142 = or i32 %136, %141
  store i32 %142, ptr %14, align 4
  %143 = load i32, ptr %14, align 4
  %144 = icmp sgt i32 %143, 1114111
  br i1 %144, label %145, label %146

145:                                              ; preds = %118
  store i32 65533, ptr %14, align 4
  br label %146

146:                                              ; preds = %145, %118
  %147 = load ptr, ptr %10, align 8
  %148 = getelementptr inbounds i8, ptr %147, i64 3
  store ptr %148, ptr %10, align 8
  br label %150

149:                                              ; preds = %113, %109, %105
  store i32 65533, ptr %14, align 4
  br label %150

150:                                              ; preds = %149, %146
  br label %151

151:                                              ; preds = %150, %85
  br label %152

152:                                              ; preds = %151, %61
  br label %153

153:                                              ; preds = %152, %46
  br label %154

154:                                              ; preds = %153
  br label %155

155:                                              ; preds = %154
  %156 = load ptr, ptr %11, align 8
  %157 = getelementptr inbounds i8, ptr %156, i32 1
  store ptr %157, ptr %11, align 8
  %158 = load i8, ptr %156, align 1
  store i8 %158, ptr %17, align 1
  %159 = load i8, ptr %17, align 1
  %160 = zext i8 %159 to i32
  %161 = icmp slt i32 %160, 128
  br i1 %161, label %162, label %165

162:                                              ; preds = %155
  %163 = load i8, ptr %17, align 1
  %164 = zext i8 %163 to i32
  store i32 %164, ptr %15, align 4
  br label %269

165:                                              ; preds = %155
  %166 = load i8, ptr %17, align 1
  %167 = zext i8 %166 to i32
  %168 = icmp sge i32 %167, 194
  br i1 %168, label %169, label %188

169:                                              ; preds = %165
  %170 = load i8, ptr %17, align 1
  %171 = zext i8 %170 to i32
  %172 = icmp slt i32 %171, 224
  br i1 %172, label %173, label %188

173:                                              ; preds = %169
  %174 = load ptr, ptr %11, align 8
  %175 = load ptr, ptr %13, align 8
  %176 = icmp ult ptr %174, %175
  br i1 %176, label %177, label %188

177:                                              ; preds = %173
  %178 = load i8, ptr %17, align 1
  %179 = zext i8 %178 to i32
  %180 = and i32 %179, 31
  %181 = shl i32 %180, 6
  %182 = load ptr, ptr %11, align 8
  %183 = getelementptr inbounds i8, ptr %182, i32 1
  store ptr %183, ptr %11, align 8
  %184 = load i8, ptr %182, align 1
  %185 = zext i8 %184 to i32
  %186 = and i32 %185, 63
  %187 = or i32 %181, %186
  store i32 %187, ptr %15, align 4
  br label %268

188:                                              ; preds = %173, %169, %165
  %189 = load i8, ptr %17, align 1
  %190 = zext i8 %189 to i32
  %191 = icmp sge i32 %190, 224
  br i1 %191, label %192, label %221

192:                                              ; preds = %188
  %193 = load i8, ptr %17, align 1
  %194 = zext i8 %193 to i32
  %195 = icmp slt i32 %194, 240
  br i1 %195, label %196, label %221

196:                                              ; preds = %192
  %197 = load ptr, ptr %11, align 8
  %198 = getelementptr inbounds i8, ptr %197, i64 1
  %199 = load ptr, ptr %13, align 8
  %200 = icmp ult ptr %198, %199
  br i1 %200, label %201, label %221

201:                                              ; preds = %196
  %202 = load i8, ptr %17, align 1
  %203 = zext i8 %202 to i32
  %204 = and i32 %203, 15
  %205 = shl i32 %204, 12
  %206 = load ptr, ptr %11, align 8
  %207 = getelementptr inbounds i8, ptr %206, i64 0
  %208 = load i8, ptr %207, align 1
  %209 = zext i8 %208 to i32
  %210 = and i32 %209, 63
  %211 = shl i32 %210, 6
  %212 = or i32 %205, %211
  %213 = load ptr, ptr %11, align 8
  %214 = getelementptr inbounds i8, ptr %213, i64 1
  %215 = load i8, ptr %214, align 1
  %216 = zext i8 %215 to i32
  %217 = and i32 %216, 63
  %218 = or i32 %212, %217
  store i32 %218, ptr %15, align 4
  %219 = load ptr, ptr %11, align 8
  %220 = getelementptr inbounds i8, ptr %219, i64 2
  store ptr %220, ptr %11, align 8
  br label %267

221:                                              ; preds = %196, %192, %188
  %222 = load i8, ptr %17, align 1
  %223 = zext i8 %222 to i32
  %224 = icmp sge i32 %223, 240
  br i1 %224, label %225, label %265

225:                                              ; preds = %221
  %226 = load i8, ptr %17, align 1
  %227 = zext i8 %226 to i32
  %228 = icmp sle i32 %227, 245
  br i1 %228, label %229, label %265

229:                                              ; preds = %225
  %230 = load ptr, ptr %11, align 8
  %231 = getelementptr inbounds i8, ptr %230, i64 2
  %232 = load ptr, ptr %13, align 8
  %233 = icmp ult ptr %231, %232
  br i1 %233, label %234, label %265

234:                                              ; preds = %229
  %235 = load i8, ptr %17, align 1
  %236 = zext i8 %235 to i32
  %237 = and i32 %236, 7
  %238 = shl i32 %237, 18
  %239 = load ptr, ptr %11, align 8
  %240 = getelementptr inbounds i8, ptr %239, i64 0
  %241 = load i8, ptr %240, align 1
  %242 = zext i8 %241 to i32
  %243 = and i32 %242, 63
  %244 = shl i32 %243, 12
  %245 = or i32 %238, %244
  %246 = load ptr, ptr %11, align 8
  %247 = getelementptr inbounds i8, ptr %246, i64 1
  %248 = load i8, ptr %247, align 1
  %249 = zext i8 %248 to i32
  %250 = and i32 %249, 63
  %251 = shl i32 %250, 6
  %252 = or i32 %245, %251
  %253 = load ptr, ptr %11, align 8
  %254 = getelementptr inbounds i8, ptr %253, i64 2
  %255 = load i8, ptr %254, align 1
  %256 = zext i8 %255 to i32
  %257 = and i32 %256, 63
  %258 = or i32 %252, %257
  store i32 %258, ptr %15, align 4
  %259 = load i32, ptr %15, align 4
  %260 = icmp sgt i32 %259, 1114111
  br i1 %260, label %261, label %262

261:                                              ; preds = %234
  store i32 65533, ptr %15, align 4
  br label %262

262:                                              ; preds = %261, %234
  %263 = load ptr, ptr %11, align 8
  %264 = getelementptr inbounds i8, ptr %263, i64 3
  store ptr %264, ptr %11, align 8
  br label %266

265:                                              ; preds = %229, %225, %221
  store i32 65533, ptr %15, align 4
  br label %266

266:                                              ; preds = %265, %262
  br label %267

267:                                              ; preds = %266, %201
  br label %268

268:                                              ; preds = %267, %177
  br label %269

269:                                              ; preds = %268, %162
  br label %270

270:                                              ; preds = %269
  %271 = load i32, ptr %14, align 4
  %272 = load i32, ptr %15, align 4
  %273 = icmp eq i32 %271, %272
  br i1 %273, label %274, label %275

274:                                              ; preds = %270
  br label %28

275:                                              ; preds = %270
  %276 = load i32, ptr %14, align 4
  %277 = call i32 @tolower(i32 noundef %276) #5
  store i32 %277, ptr %14, align 4
  %278 = load i32, ptr %15, align 4
  %279 = call i32 @tolower(i32 noundef %278) #5
  store i32 %279, ptr %15, align 4
  %280 = load i32, ptr %14, align 4
  %281 = load i32, ptr %15, align 4
  %282 = icmp ne i32 %280, %281
  br i1 %282, label %283, label %287

283:                                              ; preds = %275
  %284 = load i32, ptr %14, align 4
  %285 = load i32, ptr %15, align 4
  %286 = sub nsw i32 %284, %285
  store i32 %286, ptr %5, align 4
  br label %292

287:                                              ; preds = %275
  br label %28

288:                                              ; preds = %36
  %289 = load i32, ptr %8, align 4
  %290 = load i32, ptr %9, align 4
  %291 = sub nsw i32 %289, %290
  store i32 %291, ptr %5, align 4
  br label %292

292:                                              ; preds = %288, %283
  %293 = load i32, ptr %5, align 4
  ret i32 %293
}