; Function Attrs: nofree nounwind memory(read) uwtable
define internal fastcc i32 @compare(ptr noundef readonly %0, ptr noundef readonly %1, i32 noundef %2, i32 noundef %3) unnamed_addr #6 {
  %5 = sext i32 %2 to i64
  %6 = getelementptr inbounds i8, ptr %0, i64 %5
  %7 = sext i32 %3 to i64
  %8 = getelementptr inbounds i8, ptr %1, i64 %7
  %9 = icmp sgt i32 %2, 0
  %10 = icmp sgt i32 %3, 0
  %11 = and i1 %9, %10
  br i1 %11, label %.lr.ph, label %._crit_edge

.lr.ph:                                           ; preds = %4, %.backedge
  %.092118 = phi ptr [ %.1, %.backedge ], [ %0, %4 ]
  %.095117 = phi ptr [ %.196, %.backedge ], [ %1, %4 ]
  %12 = getelementptr inbounds i8, ptr %.092118, i64 1
  %13 = load i8, ptr %.092118, align 1
  %14 = zext i8 %13 to i32
  %15 = icmp sgt i8 %13, -1
  br i1 %15, label %.thread, label %16

16:                                               ; preds = %.lr.ph
  %17 = add nsw i8 %13, 62
  %or.cond = icmp ult i8 %17, 30
  %18 = icmp ult ptr %12, %6
  %or.cond111 = select i1 %or.cond, i1 %18, i1 false
  br i1 %or.cond111, label %19, label %27

19:                                               ; preds = %16
  %20 = shl nuw nsw i32 %14, 6
  %21 = and i32 %20, 1984
  %22 = getelementptr inbounds i8, ptr %.092118, i64 2
  %23 = load i8, ptr %12, align 1
  %24 = and i8 %23, 63
  %25 = zext nneg i8 %24 to i32
  %26 = or disjoint i32 %21, %25
  br label %.thread

27:                                               ; preds = %16
  %28 = and i8 %13, -16
  %or.cond5 = icmp eq i8 %28, -32
  br i1 %or.cond5, label %29, label %45

29:                                               ; preds = %27
  %30 = getelementptr inbounds i8, ptr %.092118, i64 2
  %31 = icmp ult ptr %30, %6
  br i1 %31, label %32, label %.thread

32:                                               ; preds = %29
  %33 = shl nuw nsw i32 %14, 12
  %34 = and i32 %33, 61440
  %35 = load i8, ptr %12, align 1
  %36 = and i8 %35, 63
  %37 = zext nneg i8 %36 to i32
  %38 = shl nuw nsw i32 %37, 6
  %39 = or disjoint i32 %38, %34
  %40 = load i8, ptr %30, align 1
  %41 = and i8 %40, 63
  %42 = zext nneg i8 %41 to i32
  %43 = or disjoint i32 %39, %42
  %44 = getelementptr inbounds i8, ptr %.092118, i64 3
  br label %.thread

45:                                               ; preds = %27
  %46 = add nsw i8 %13, 16
  %or.cond8 = icmp ult i8 %46, 6
  br i1 %or.cond8, label %47, label %.thread

47:                                               ; preds = %45
  %48 = getelementptr inbounds i8, ptr %.092118, i64 3
  %49 = icmp ult ptr %48, %6
  br i1 %49, label %50, label %.thread

50:                                               ; preds = %47
  %51 = shl nuw nsw i32 %14, 18
  %52 = and i32 %51, 1835008
  %53 = load i8, ptr %12, align 1
  %54 = and i8 %53, 63
  %55 = zext nneg i8 %54 to i32
  %56 = shl nuw nsw i32 %55, 12
  %57 = or disjoint i32 %56, %52
  %58 = getelementptr inbounds i8, ptr %.092118, i64 2
  %59 = load i8, ptr %58, align 1
  %60 = and i8 %59, 63
  %61 = zext nneg i8 %60 to i32
  %62 = shl nuw nsw i32 %61, 6
  %63 = or disjoint i32 %57, %62
  %64 = load i8, ptr %48, align 1
  %65 = and i8 %64, 63
  %66 = zext nneg i8 %65 to i32
  %67 = or disjoint i32 %63, %66
  %68 = icmp ugt i32 %67, 1114111
  %spec.store.select = select i1 %68, i32 65533, i32 %67
  %69 = getelementptr inbounds i8, ptr %.092118, i64 4
  br label %.thread

.thread:                                          ; preds = %29, %45, %47, %.lr.ph, %19, %50, %32
  %.094 = phi i32 [ %26, %19 ], [ %43, %32 ], [ %spec.store.select, %50 ], [ %14, %.lr.ph ], [ 65533, %47 ], [ 65533, %45 ], [ 65533, %29 ]
  %.1 = phi ptr [ %22, %19 ], [ %44, %32 ], [ %69, %50 ], [ %12, %.lr.ph ], [ %12, %47 ], [ %12, %45 ], [ %12, %29 ]
  %70 = getelementptr inbounds i8, ptr %.095117, i64 1
  %71 = load i8, ptr %.095117, align 1
  %72 = zext i8 %71 to i32
  %73 = icmp sgt i8 %71, -1
  br i1 %73, label %.thread114, label %74

74:                                               ; preds = %.thread
  %75 = add nsw i8 %71, 62
  %or.cond11 = icmp ult i8 %75, 30
  %76 = icmp ult ptr %70, %8
  %or.cond112 = select i1 %or.cond11, i1 %76, i1 false
  br i1 %or.cond112, label %77, label %85

77:                                               ; preds = %74
  %78 = shl nuw nsw i32 %72, 6
  %79 = and i32 %78, 1984
  %80 = getelementptr inbounds i8, ptr %.095117, i64 2
  %81 = load i8, ptr %70, align 1
  %82 = and i8 %81, 63
  %83 = zext nneg i8 %82 to i32
  %84 = or disjoint i32 %79, %83
  br label %.thread114

85:                                               ; preds = %74
  %86 = and i8 %71, -16
  %or.cond14 = icmp eq i8 %86, -32
  br i1 %or.cond14, label %87, label %103

87:                                               ; preds = %85
  %88 = getelementptr inbounds i8, ptr %.095117, i64 2
  %89 = icmp ult ptr %88, %8
  br i1 %89, label %90, label %.thread114

90:                                               ; preds = %87
  %91 = shl nuw nsw i32 %72, 12
  %92 = and i32 %91, 61440
  %93 = load i8, ptr %70, align 1
  %94 = and i8 %93, 63
  %95 = zext nneg i8 %94 to i32
  %96 = shl nuw nsw i32 %95, 6
  %97 = or disjoint i32 %96, %92
  %98 = load i8, ptr %88, align 1
  %99 = and i8 %98, 63
  %100 = zext nneg i8 %99 to i32
  %101 = or disjoint i32 %97, %100
  %102 = getelementptr inbounds i8, ptr %.095117, i64 3
  br label %.thread114

103:                                              ; preds = %85
  %104 = add nsw i8 %71, 16
  %or.cond17 = icmp ult i8 %104, 6
  br i1 %or.cond17, label %105, label %.thread114

105:                                              ; preds = %103
  %106 = getelementptr inbounds i8, ptr %.095117, i64 3
  %107 = icmp ult ptr %106, %8
  br i1 %107, label %108, label %.thread114

108:                                              ; preds = %105
  %109 = shl nuw nsw i32 %72, 18
  %110 = and i32 %109, 1835008
  %111 = load i8, ptr %70, align 1
  %112 = and i8 %111, 63
  %113 = zext nneg i8 %112 to i32
  %114 = shl nuw nsw i32 %113, 12
  %115 = or disjoint i32 %114, %110
  %116 = getelementptr inbounds i8, ptr %.095117, i64 2
  %117 = load i8, ptr %116, align 1
  %118 = and i8 %117, 63
  %119 = zext nneg i8 %118 to i32
  %120 = shl nuw nsw i32 %119, 6
  %121 = or disjoint i32 %115, %120
  %122 = load i8, ptr %106, align 1
  %123 = and i8 %122, 63
  %124 = zext nneg i8 %123 to i32
  %125 = or disjoint i32 %121, %124
  %126 = icmp ugt i32 %125, 1114111
  %spec.store.select18 = select i1 %126, i32 65533, i32 %125
  %127 = getelementptr inbounds i8, ptr %.095117, i64 4
  br label %.thread114

.thread114:                                       ; preds = %87, %103, %105, %.thread, %90, %108, %77
  %.196 = phi ptr [ %80, %77 ], [ %102, %90 ], [ %127, %108 ], [ %70, %.thread ], [ %70, %105 ], [ %70, %103 ], [ %70, %87 ]
  %.093 = phi i32 [ %84, %77 ], [ %101, %90 ], [ %spec.store.select18, %108 ], [ %72, %.thread ], [ 65533, %105 ], [ 65533, %103 ], [ 65533, %87 ]
  %128 = icmp eq i32 %.094, %.093
  br i1 %128, label %.backedge, label %132

.backedge:                                        ; preds = %.thread114, %132
  %129 = icmp ult ptr %.1, %6
  %130 = icmp ult ptr %.196, %8
  %131 = select i1 %129, i1 %130, i1 false
  br i1 %131, label %.lr.ph, label %._crit_edge

132:                                              ; preds = %.thread114
  %133 = tail call i32 @tolower(i32 noundef %.094) #13
  %134 = tail call i32 @tolower(i32 noundef %.093) #13
  %.not = icmp eq i32 %133, %134
  br i1 %.not, label %.backedge, label %135

135:                                              ; preds = %132
  %136 = sub nsw i32 %133, %134
  br label %138

._crit_edge:                                      ; preds = %.backedge, %4
  %137 = sub nsw i32 %2, %3
  br label %138

138:                                              ; preds = %._crit_edge, %135
  %.0 = phi i32 [ %136, %135 ], [ %137, %._crit_edge ]
  ret i32 %.0
}